target datalayout = "e-m:e-p270:32:32-p271:32:32-p272:64:64-i64:64-i128:128-f80:128-n8:16:32:64-S128"
target triple = "x86_64-pc-linux-gnu"

%"class.absl::lts_20240722::Status" = type { i64 }
%class.anon.638 = type { ptr, %"class.absl::lts_20240722::Status" }

; Function Attrs: inlinehint mustprogress nounwind uwtable
define linkonce_odr noundef ptr @_ZN4absl12lts_202407226Status12RepToPointerEm(i64 noundef %0) #11 comdat align 2 {
  %2 = alloca i64, align 8
  store i64 %0, ptr %2, align 8, !tbaa !72
  %3 = load i64, ptr %2, align 8, !tbaa !72
  %4 = inttoptr i64 %3 to ptr
  ret ptr %4
}

; Function Attrs: mustprogress nounwind uwtable
define linkonce_odr noundef zeroext i1 @_ZN4absl12lts_202407226Status9IsInlinedEm(i64 noundef %0) #5 comdat align 2 {
  %2 = alloca i64, align 8
  store i64 %0, ptr %2, align 8, !tbaa !72
  %3 = load i64, ptr %2, align 8, !tbaa !72
  %4 = and i64 %3, 1
  %5 = icmp ne i64 %4, 0
  ret i1 %5
}

; Function Attrs: inlinehint mustprogress uwtable
define linkonce_odr void @_ZN4absl12lts_202407226Status5UnrefEm(i64 noundef %0) #7 comdat align 2 {
  %2 = alloca i64, align 8
  store i64 %0, ptr %2, align 8, !tbaa !72
  %3 = load i64, ptr %2, align 8, !tbaa !72
  %4 = call noundef zeroext i1 @_ZN4absl12lts_202407226Status9IsInlinedEm(i64 noundef %3)
  br i1 %4, label %8, label %5

5:                                                ; preds = %1
  %6 = load i64, ptr %2, align 8, !tbaa !72
  %7 = call noundef ptr @_ZN4absl12lts_202407226Status12RepToPointerEm(i64 noundef %6)
  call void @_ZNK4absl12lts_2024072215status_internal9StatusRep5UnrefEv(ptr noundef nonnull align 8 dereferenceable(48) %7)
  br label %8

8:                                                ; preds = %5, %1
  ret void
}

; Function Attrs: inlinehint mustprogress nounwind uwtable
define linkonce_odr void @_ZN4absl12lts_202407226StatusD2Ev(ptr noundef nonnull align 8 dereferenceable(8) %0) unnamed_addr #11 comdat align 2 personality ptr @__gxx_personality_v0 {
  %2 = alloca ptr, align 8
  store ptr %0, ptr %2, align 8, !tbaa !183
  %3 = load ptr, ptr %2, align 8
  %4 = getelementptr inbounds nuw %"class.absl::lts_20240722::Status", ptr %3, i32 0, i32 0
  %5 = load i64, ptr %4, align 8, !tbaa !185
  invoke void @_ZN4absl12lts_202407226Status5UnrefEm(i64 noundef %5)
          to label %6 unwind label %7

6:                                                ; preds = %1
  ret void

7:                                                ; preds = %1
  %8 = landingpad { ptr, i32 }
          catch ptr null
  %9 = extractvalue { ptr, i32 } %8, 0
  call void @__clang_call_terminate(ptr %9) #29
  unreachable
}

; Function Attrs: inlinehint mustprogress nounwind uwtable
define internal void @"_ZZN9grpc_core12_GLOBAL__N_16GrpcLb17BalancerCallState20ClientLoadReportDoneEPvN4absl12lts_202407226StatusEEN3$_0D2Ev"(ptr noundef nonnull align 8 dereferenceable(16) %0) unnamed_addr #11 align 2 {
  %2 = alloca ptr, align 8
  store ptr %0, ptr %2, align 8, !tbaa !39
  %3 = load ptr, ptr %2, align 8
  %4 = getelementptr inbounds nuw %class.anon.638, ptr %3, i32 0, i32 1
  call void @_ZN4absl12lts_202407226StatusD2Ev(ptr noundef nonnull align 8 dereferenceable(8) %4) #3
  ret void
}